target datalayout = "e-m:e-p270:32:32-p271:32:32-p272:64:64-i64:64-i128:128-f80:128-n8:16:32:64-S128"
target triple = "x86_64-pc-linux-gnu"

@.str.18 = private unnamed_addr constant [12 x i8] c"child_stats\00", align 1

; Function Attrs: mustprogress uwtable
define linkonce_odr void @_ZN6duckdb10Serializer10WriteValueINS_14BaseStatisticsEEENSt9enable_ifIXsr13has_serializeIT_EE5valueEvE4typeERKS4_(ptr noundef nonnull align 8 dereferenceable(680) %0, ptr noundef nonnull align 8 dereferenceable(88) %1) #4 comdat align 2 {
  %3 = alloca ptr, align 8
  %4 = alloca ptr, align 8
  store ptr %0, ptr %3, align 8, !tbaa !78
  store ptr %1, ptr %4, align 8, !tbaa !3
  %5 = load ptr, ptr %3, align 8
  %6 = load ptr, ptr %5, align 8, !tbaa !86
  %7 = getelementptr inbounds ptr, ptr %6, i64 6
  %8 = load ptr, ptr %7, align 8
  call void %8(ptr noundef nonnull align 8 dereferenceable(680) %5)
  %9 = load ptr, ptr %4, align 8, !tbaa !3
  call void @_ZNK6duckdb14BaseStatistics9SerializeERNS_10SerializerE(ptr noundef nonnull align 8 dereferenceable(88) %9, ptr noundef nonnull align 8 dereferenceable(680) %5)
  %10 = load ptr, ptr %5, align 8, !tbaa !86
  %11 = getelementptr inbounds ptr, ptr %10, i64 7
  %12 = load ptr, ptr %11, align 8
  call void %12(ptr noundef nonnull align 8 dereferenceable(680) %5)
  ret void
}

; Function Attrs: mustprogress uwtable
define linkonce_odr void @_ZN6duckdb10Serializer13WritePropertyINS_14BaseStatisticsEEEvtPKcRKT_(ptr noundef nonnull align 8 dereferenceable(680) %0, i16 noundef zeroext %1, ptr noundef %2, ptr noundef nonnull align 8 dereferenceable(88) %3) #4 comdat align 2 {
  %5 = alloca ptr, align 8
  %6 = alloca i16, align 2
  %7 = alloca ptr, align 8
  %8 = alloca ptr, align 8
  store ptr %0, ptr %5, align 8, !tbaa !78
  store i16 %1, ptr %6, align 2, !tbaa !82
  store ptr %2, ptr %7, align 8, !tbaa !74
  store ptr %3, ptr %8, align 8, !tbaa !3
  %9 = load ptr, ptr %5, align 8
  %10 = load i16, ptr %6, align 2, !tbaa !82
  %11 = load ptr, ptr %7, align 8, !tbaa !74
  %12 = load ptr, ptr %9, align 8, !tbaa !86
  %13 = getelementptr inbounds ptr, ptr %12, i64 2
  %14 = load ptr, ptr %13, align 8
  call void %14(ptr noundef nonnull align 8 dereferenceable(680) %9, i16 noundef zeroext %10, ptr noundef %11)
  %15 = load ptr, ptr %8, align 8, !tbaa !3
  call void @_ZN6duckdb10Serializer10WriteValueINS_14BaseStatisticsEEENSt9enable_ifIXsr13has_serializeIT_EE5valueEvE4typeERKS4_(ptr noundef nonnull align 8 dereferenceable(680) %9, ptr noundef nonnull align 8 dereferenceable(88) %15)
  %16 = load ptr, ptr %9, align 8, !tbaa !86
  %17 = getelementptr inbounds ptr, ptr %16, i64 3
  %18 = load ptr, ptr %17, align 8
  call void %18(ptr noundef nonnull align 8 dereferenceable(680) %9)
  ret void
}

; Function Attrs: mustprogress uwtable
define void @_ZN6duckdb9ListStats9SerializeERKNS_14BaseStatisticsERNS_10SerializerE(ptr noundef nonnull align 8 dereferenceable(88) %0, ptr noundef nonnull align 8 dereferenceable(680) %1) #4 align 2 {
  %3 = alloca ptr, align 8
  %4 = alloca ptr, align 8
  %5 = alloca ptr, align 8
  store ptr %0, ptr %3, align 8, !tbaa !3
  store ptr %1, ptr %4, align 8, !tbaa !78
  call void @llvm.lifetime.start.p0(i64 8, ptr %5) #3
  %6 = load ptr, ptr %3, align 8, !tbaa !3
  %7 = call noundef nonnull align 8 dereferenceable(88) ptr @_ZN6duckdb9ListStats13GetChildStatsERKNS_14BaseStatisticsE(ptr noundef nonnull align 8 dereferenceable(88) %6)
  store ptr %7, ptr %5, align 8, !tbaa !3
  %8 = load ptr, ptr %4, align 8, !tbaa !78
  %9 = load ptr, ptr %5, align 8, !tbaa !3
  call void @_ZN6duckdb10Serializer13WritePropertyINS_14BaseStatisticsEEEvtPKcRKT_(ptr noundef nonnull align 8 dereferenceable(680) %8, i16 noundef zeroext 200, ptr noundef @.str.18, ptr noundef nonnull align 8 dereferenceable(88) %9)
  call void @llvm.lifetime.end.p0(i64 8, ptr %5) #3
  ret void
}