; Function Attrs: mustprogress uwtable
define void @_ZN6duckdb9ListStats9SerializeERKNS_14BaseStatisticsERNS_10SerializerE(ptr noundef nonnull readonly align 8 captures(none) dereferenceable(88) %0, ptr noundef nonnull align 8 dereferenceable(680) %1) local_unnamed_addr #3 align 2 {
  %3 = tail call noundef nonnull align 8 dereferenceable(88) ptr @_ZN6duckdb9ListStats13GetChildStatsERKNS_14BaseStatisticsE(ptr noundef nonnull align 8 dereferenceable(88) %0)
  %4 = load ptr, ptr %1, align 8, !tbaa !38
  %5 = getelementptr inbounds nuw i8, ptr %4, i64 16
  %6 = load ptr, ptr %5, align 8
  tail call void %6(ptr noundef nonnull align 8 dereferenceable(680) %1, i16 noundef zeroext 200, ptr noundef nonnull @.str.18)
  %7 = load ptr, ptr %1, align 8, !tbaa !38
  %8 = getelementptr inbounds nuw i8, ptr %7, i64 48
  %9 = load ptr, ptr %8, align 8
  tail call void %9(ptr noundef nonnull align 8 dereferenceable(680) %1)
  tail call void @_ZNK6duckdb14BaseStatistics9SerializeERNS_10SerializerE(ptr noundef nonnull align 8 dereferenceable(88) %3, ptr noundef nonnull align 8 dereferenceable(680) %1)
  %10 = load ptr, ptr %1, align 8, !tbaa !38
  %11 = getelementptr inbounds nuw i8, ptr %10, i64 56
  %12 = load ptr, ptr %11, align 8
  tail call void %12(ptr noundef nonnull align 8 dereferenceable(680) %1)
  %13 = load ptr, ptr %1, align 8, !tbaa !38
  %14 = getelementptr inbounds nuw i8, ptr %13, i64 24
  %15 = load ptr, ptr %14, align 8
  tail call void %15(ptr noundef nonnull align 8 dereferenceable(680) %1)
  ret void
}